; Function Attrs: mustprogress uwtable
define hidden void @_ZN5psort5cacheER13pdecl_managerPKP4sortS3_(ptr nocapture noundef nonnull align 8 dereferenceable(32) %this, ptr noundef nonnull align 8 dereferenceable(192) %m, ptr noundef %s, ptr noundef %r) unnamed_addr #3 align 2 {
entry:
  %m_inst_cache = getelementptr inbounds i8, ptr %this, i64 24
  %0 = load ptr, ptr %m_inst_cache, align 8
  %tobool.not = icmp eq ptr %0, null
  br i1 %tobool.not, label %if.then, label %if.end

if.then:                                          ; preds = %entry
  %m_num_params = getelementptr inbounds i8, ptr %this, i64 12
  %1 = load i32, ptr %m_num_params, align 4
  %m_allocator.i.i = getelementptr inbounds i8, ptr %m, i64 8
  %2 = load ptr, ptr %m_allocator.i.i, align 8
  %call2.i = tail call noundef ptr @_ZN22small_object_allocator8allocateEm(ptr noundef nonnull align 8 dereferenceable(520) %2, i64 noundef 40)
  store i32 %1, ptr %call2.i, align 8
  %m_const.i.i = getelementptr inbounds i8, ptr %call2.i, i64 8
  store ptr null, ptr %m_const.i.i, align 8
  %m_map.i.i = getelementptr inbounds i8, ptr %call2.i, i64 16
  %call.i.i.i.i.i.i = tail call noalias noundef ptr @_ZN6memory8allocateEm(i64 noundef 128)
  tail call void @llvm.memset.p0.i64(ptr noundef nonnull align 8 dereferenceable(128) %call.i.i.i.i.i.i, i8 0, i64 128, i1 false)
  store ptr %call.i.i.i.i.i.i, ptr %m_map.i.i, align 8
  %m_capacity.i.i.i.i = getelementptr inbounds i8, ptr %call2.i, i64 24
  store i32 8, ptr %m_capacity.i.i.i.i, align 8
  %m_size.i.i.i.i = getelementptr inbounds i8, ptr %call2.i, i64 28
  store i32 0, ptr %m_size.i.i.i.i, align 4
  %m_num_deleted.i.i.i.i = getelementptr inbounds i8, ptr %call2.i, i64 32
  store i32 0, ptr %m_num_deleted.i.i.i.i, align 8
  store ptr %call2.i, ptr %m_inst_cache, align 8
  br label %if.end

if.end:                                           ; preds = %if.then, %entry
  %3 = phi ptr [ %call2.i, %if.then ], [ %0, %entry ]
  tail call void @_ZN16psort_inst_cache6insertER13pdecl_managerPKP4sortS3_(ptr noundef nonnull align 8 dereferenceable(40) %3, ptr noundef nonnull align 8 dereferenceable(192) %m, ptr noundef %s, ptr noundef %r)
  ret void
}